target datalayout = "e-m:e-p270:32:32-p271:32:32-p272:64:64-i64:64-i128:128-f80:128-n8:16:32:64-S128"
target triple = "x86_64-pc-linux-gnu"

%struct.xlist = type { i32, i32, ptr, ptr, ptr, ptr, %union.pthread_rwlock_t, ptr, ptr, [0 x %struct.listNode] }
%union.pthread_rwlock_t = type { %struct.__pthread_rwlock_arch_t }
%struct.__pthread_rwlock_arch_t = type { i32, i32, i32, i32, i32, i32, i32, i32, i8, [7 x i8], i64, i32 }
%struct.listNode = type { ptr, ptr }
%struct.listIterator = type { i32, ptr, ptr, ptr, ptr }

@.str = private unnamed_addr constant [7 x i8] c"list.c\00", align 1
@.str.2 = private unnamed_addr constant [32 x i8] c"%s: pthread_rwlock_wrlock(): %m\00", align 1
@.str.3 = private unnamed_addr constant [32 x i8] c"%s: pthread_rwlock_unlock(): %m\00", align 1
@__func__.list_append_list = private unnamed_addr constant [17 x i8] c"list_append_list\00", align 1
@__func__._list_node_create = private unnamed_addr constant [18 x i8] c"_list_node_create\00", align 1

; Function Attrs: nounwind uwtable
define internal void @_list_node_create(ptr noundef %0, ptr noundef %1, ptr noundef %2) #0 {
  %4 = alloca ptr, align 8
  %5 = alloca ptr, align 8
  %6 = alloca ptr, align 8
  %7 = alloca ptr, align 8
  %8 = alloca ptr, align 8
  %9 = alloca ptr, align 8
  %10 = alloca i32, align 4
  store ptr %0, ptr %4, align 8
  store ptr %1, ptr %5, align 8
  store ptr %2, ptr %6, align 8
  call void @llvm.lifetime.start.p0(i64 8, ptr %7) #6
  call void @llvm.lifetime.start.p0(i64 8, ptr %8) #6
  %11 = load ptr, ptr %4, align 8
  %12 = getelementptr inbounds nuw %struct.xlist, ptr %11, i32 0, i32 7
  %13 = load ptr, ptr %12, align 8
  %14 = icmp ne ptr %13, null
  br i1 %14, label %50, label %15

15:                                               ; preds = %3
  call void @llvm.lifetime.start.p0(i64 8, ptr %9) #6
  %16 = call ptr @slurm_xcalloc(i64 noundef 247, i64 noundef 16, i1 noundef zeroext true, i1 noundef zeroext false, ptr noundef @.str, i32 noundef 972, ptr noundef @__func__._list_node_create)
  store ptr %16, ptr %9, align 8
  %17 = load ptr, ptr %4, align 8
  %18 = getelementptr inbounds nuw %struct.xlist, ptr %17, i32 0, i32 8
  %19 = load ptr, ptr %18, align 8
  %20 = load ptr, ptr %9, align 8
  %21 = getelementptr inbounds %struct.listNode, ptr %20, i64 0
  %22 = getelementptr inbounds nuw %struct.listNode, ptr %21, i32 0, i32 1
  store ptr %19, ptr %22, align 8
  %23 = load ptr, ptr %9, align 8
  %24 = getelementptr inbounds %struct.listNode, ptr %23, i64 0
  %25 = load ptr, ptr %4, align 8
  %26 = getelementptr inbounds nuw %struct.xlist, ptr %25, i32 0, i32 8
  store ptr %24, ptr %26, align 8
  %27 = load ptr, ptr %9, align 8
  %28 = getelementptr inbounds %struct.listNode, ptr %27, i64 1
  %29 = load ptr, ptr %4, align 8
  %30 = getelementptr inbounds nuw %struct.xlist, ptr %29, i32 0, i32 7
  store ptr %28, ptr %30, align 8
  call void @llvm.lifetime.start.p0(i64 4, ptr %10) #6
  store i32 1, ptr %10, align 4
  br label %31

31:                                               ; preds = %46, %15
  %32 = load i32, ptr %10, align 4
  %33 = icmp slt i32 %32, 246
  br i1 %33, label %35, label %34

34:                                               ; preds = %31
  call void @llvm.lifetime.end.p0(i64 4, ptr %10) #6
  br label %49

35:                                               ; preds = %31
  %36 = load ptr, ptr %9, align 8
  %37 = load i32, ptr %10, align 4
  %38 = add nsw i32 %37, 1
  %39 = sext i32 %38 to i64
  %40 = getelementptr inbounds %struct.listNode, ptr %36, i64 %39
  %41 = load ptr, ptr %9, align 8
  %42 = load i32, ptr %10, align 4
  %43 = sext i32 %42 to i64
  %44 = getelementptr inbounds %struct.listNode, ptr %41, i64 %43
  %45 = getelementptr inbounds nuw %struct.listNode, ptr %44, i32 0, i32 1
  store ptr %40, ptr %45, align 8
  br label %46

46:                                               ; preds = %35
  %47 = load i32, ptr %10, align 4
  %48 = add nsw i32 %47, 1
  store i32 %48, ptr %10, align 4
  br label %31, !llvm.loop !32

49:                                               ; preds = %34
  call void @llvm.lifetime.end.p0(i64 8, ptr %9) #6
  br label %50

50:                                               ; preds = %49, %3
  %51 = load ptr, ptr %4, align 8
  %52 = getelementptr inbounds nuw %struct.xlist, ptr %51, i32 0, i32 7
  %53 = load ptr, ptr %52, align 8
  store ptr %53, ptr %7, align 8
  %54 = load ptr, ptr %7, align 8
  %55 = getelementptr inbounds nuw %struct.listNode, ptr %54, i32 0, i32 1
  %56 = load ptr, ptr %55, align 8
  %57 = load ptr, ptr %4, align 8
  %58 = getelementptr inbounds nuw %struct.xlist, ptr %57, i32 0, i32 7
  store ptr %56, ptr %58, align 8
  %59 = load ptr, ptr %6, align 8
  %60 = load ptr, ptr %7, align 8
  %61 = getelementptr inbounds nuw %struct.listNode, ptr %60, i32 0, i32 0
  store ptr %59, ptr %61, align 8
  %62 = load ptr, ptr %5, align 8
  %63 = load ptr, ptr %62, align 8
  %64 = load ptr, ptr %7, align 8
  %65 = getelementptr inbounds nuw %struct.listNode, ptr %64, i32 0, i32 1
  store ptr %63, ptr %65, align 8
  %66 = icmp ne ptr %63, null
  br i1 %66, label %72, label %67

67:                                               ; preds = %50
  %68 = load ptr, ptr %7, align 8
  %69 = getelementptr inbounds nuw %struct.listNode, ptr %68, i32 0, i32 1
  %70 = load ptr, ptr %4, align 8
  %71 = getelementptr inbounds nuw %struct.xlist, ptr %70, i32 0, i32 3
  store ptr %69, ptr %71, align 8
  br label %72

72:                                               ; preds = %67, %50
  %73 = load ptr, ptr %7, align 8
  %74 = load ptr, ptr %5, align 8
  store ptr %73, ptr %74, align 8
  %75 = load ptr, ptr %4, align 8
  %76 = getelementptr inbounds nuw %struct.xlist, ptr %75, i32 0, i32 1
  %77 = load i32, ptr %76, align 4
  %78 = add nsw i32 %77, 1
  store i32 %78, ptr %76, align 4
  %79 = load ptr, ptr %4, align 8
  %80 = getelementptr inbounds nuw %struct.xlist, ptr %79, i32 0, i32 4
  %81 = load ptr, ptr %80, align 8
  store ptr %81, ptr %8, align 8
  br label %82

82:                                               ; preds = %110, %72
  %83 = load ptr, ptr %8, align 8
  %84 = icmp ne ptr %83, null
  br i1 %84, label %85, label %114

85:                                               ; preds = %82
  %86 = load ptr, ptr %8, align 8
  %87 = getelementptr inbounds nuw %struct.listIterator, ptr %86, i32 0, i32 3
  %88 = load ptr, ptr %87, align 8
  %89 = load ptr, ptr %5, align 8
  %90 = icmp eq ptr %88, %89
  br i1 %90, label %91, label %96

91:                                               ; preds = %85
  %92 = load ptr, ptr %7, align 8
  %93 = getelementptr inbounds nuw %struct.listNode, ptr %92, i32 0, i32 1
  %94 = load ptr, ptr %8, align 8
  %95 = getelementptr inbounds nuw %struct.listIterator, ptr %94, i32 0, i32 3
  store ptr %93, ptr %95, align 8
  br label %109

96:                                               ; preds = %85
  %97 = load ptr, ptr %8, align 8
  %98 = getelementptr inbounds nuw %struct.listIterator, ptr %97, i32 0, i32 2
  %99 = load ptr, ptr %98, align 8
  %100 = load ptr, ptr %7, align 8
  %101 = getelementptr inbounds nuw %struct.listNode, ptr %100, i32 0, i32 1
  %102 = load ptr, ptr %101, align 8
  %103 = icmp eq ptr %99, %102
  br i1 %103, label %104, label %108

104:                                              ; preds = %96
  %105 = load ptr, ptr %7, align 8
  %106 = load ptr, ptr %8, align 8
  %107 = getelementptr inbounds nuw %struct.listIterator, ptr %106, i32 0, i32 2
  store ptr %105, ptr %107, align 8
  br label %108

108:                                              ; preds = %104, %96
  br label %109

109:                                              ; preds = %108, %91
  br label %110

110:                                              ; preds = %109
  %111 = load ptr, ptr %8, align 8
  %112 = getelementptr inbounds nuw %struct.listIterator, ptr %111, i32 0, i32 4
  %113 = load ptr, ptr %112, align 8
  store ptr %113, ptr %8, align 8
  br label %82, !llvm.loop !33

114:                                              ; preds = %82
  call void @llvm.lifetime.end.p0(i64 8, ptr %8) #6
  call void @llvm.lifetime.end.p0(i64 8, ptr %7) #6
  ret void
}

; Function Attrs: nounwind uwtable
define dso_local i32 @list_append_list(ptr noundef %0, ptr noundef %1) #0 {
  %3 = alloca ptr, align 8
  %4 = alloca ptr, align 8
  %5 = alloca i32, align 4
  %6 = alloca ptr, align 8
  %7 = alloca i32, align 4
  %8 = alloca i32, align 4
  %9 = alloca i32, align 4
  %10 = alloca i32, align 4
  store ptr %0, ptr %3, align 8
  store ptr %1, ptr %4, align 8
  call void @llvm.lifetime.start.p0(i64 4, ptr %5) #6
  store i32 0, ptr %5, align 4
  call void @llvm.lifetime.start.p0(i64 8, ptr %6) #6
  br label %11

11:                                               ; preds = %2
  call void @llvm.lifetime.start.p0(i64 4, ptr %7) #6
  %12 = load ptr, ptr %3, align 8
  %13 = getelementptr inbounds nuw %struct.xlist, ptr %12, i32 0, i32 6
  %14 = call i32 @pthread_rwlock_wrlock(ptr noundef %13) #6
  store i32 %14, ptr %7, align 4
  %15 = load i32, ptr %7, align 4
  %16 = icmp ne i32 %15, 0
  br i1 %16, label %17, label %20

17:                                               ; preds = %11
  %18 = load i32, ptr %7, align 4
  %19 = call ptr @__errno_location() #7
  store i32 %18, ptr %19, align 4
  call void (ptr, ...) @fatal_abort(ptr noundef @.str.2, ptr noundef @__func__.list_append_list) #8
  unreachable

20:                                               ; preds = %11
  call void @llvm.lifetime.end.p0(i64 4, ptr %7) #6
  br label %21

21:                                               ; preds = %20
  br label %22

22:                                               ; preds = %21
  br label %23

23:                                               ; preds = %22
  call void @llvm.lifetime.start.p0(i64 4, ptr %8) #6
  %24 = load ptr, ptr %4, align 8
  %25 = getelementptr inbounds nuw %struct.xlist, ptr %24, i32 0, i32 6
  %26 = call i32 @pthread_rwlock_wrlock(ptr noundef %25) #6
  store i32 %26, ptr %8, align 4
  %27 = load i32, ptr %8, align 4
  %28 = icmp ne i32 %27, 0
  br i1 %28, label %29, label %32

29:                                               ; preds = %23
  %30 = load i32, ptr %8, align 4
  %31 = call ptr @__errno_location() #7
  store i32 %30, ptr %31, align 4
  call void (ptr, ...) @fatal_abort(ptr noundef @.str.2, ptr noundef @__func__.list_append_list) #8
  unreachable

32:                                               ; preds = %23
  call void @llvm.lifetime.end.p0(i64 4, ptr %8) #6
  br label %33

33:                                               ; preds = %32
  br label %34

34:                                               ; preds = %33
  %35 = load ptr, ptr %4, align 8
  %36 = getelementptr inbounds nuw %struct.xlist, ptr %35, i32 0, i32 2
  %37 = load ptr, ptr %36, align 8
  store ptr %37, ptr %6, align 8
  br label %38

38:                                               ; preds = %41, %34
  %39 = load ptr, ptr %6, align 8
  %40 = icmp ne ptr %39, null
  br i1 %40, label %41, label %54

41:                                               ; preds = %38
  %42 = load ptr, ptr %3, align 8
  %43 = load ptr, ptr %3, align 8
  %44 = getelementptr inbounds nuw %struct.xlist, ptr %43, i32 0, i32 3
  %45 = load ptr, ptr %44, align 8
  %46 = load ptr, ptr %6, align 8
  %47 = getelementptr inbounds nuw %struct.listNode, ptr %46, i32 0, i32 0
  %48 = load ptr, ptr %47, align 8
  call void @_list_node_create(ptr noundef %42, ptr noundef %45, ptr noundef %48)
  %49 = load i32, ptr %5, align 4
  %50 = add nsw i32 %49, 1
  store i32 %50, ptr %5, align 4
  %51 = load ptr, ptr %6, align 8
  %52 = getelementptr inbounds nuw %struct.listNode, ptr %51, i32 0, i32 1
  %53 = load ptr, ptr %52, align 8
  store ptr %53, ptr %6, align 8
  br label %38, !llvm.loop !14

54:                                               ; preds = %38
  br label %55

55:                                               ; preds = %54
  call void @llvm.lifetime.start.p0(i64 4, ptr %9) #6
  %56 = load ptr, ptr %4, align 8
  %57 = getelementptr inbounds nuw %struct.xlist, ptr %56, i32 0, i32 6
  %58 = call i32 @pthread_rwlock_unlock(ptr noundef %57) #6
  store i32 %58, ptr %9, align 4
  %59 = load i32, ptr %9, align 4
  %60 = icmp ne i32 %59, 0
  br i1 %60, label %61, label %64

61:                                               ; preds = %55
  %62 = load i32, ptr %9, align 4
  %63 = call ptr @__errno_location() #7
  store i32 %62, ptr %63, align 4
  call void (ptr, ...) @fatal_abort(ptr noundef @.str.3, ptr noundef @__func__.list_append_list) #8
  unreachable

64:                                               ; preds = %55
  call void @llvm.lifetime.end.p0(i64 4, ptr %9) #6
  br label %65

65:                                               ; preds = %64
  br label %66

66:                                               ; preds = %65
  br label %67

67:                                               ; preds = %66
  call void @llvm.lifetime.start.p0(i64 4, ptr %10) #6
  %68 = load ptr, ptr %3, align 8
  %69 = getelementptr inbounds nuw %struct.xlist, ptr %68, i32 0, i32 6
  %70 = call i32 @pthread_rwlock_unlock(ptr noundef %69) #6
  store i32 %70, ptr %10, align 4
  %71 = load i32, ptr %10, align 4
  %72 = icmp ne i32 %71, 0
  br i1 %72, label %73, label %76

73:                                               ; preds = %67
  %74 = load i32, ptr %10, align 4
  %75 = call ptr @__errno_location() #7
  store i32 %74, ptr %75, align 4
  call void (ptr, ...) @fatal_abort(ptr noundef @.str.3, ptr noundef @__func__.list_append_list) #8
  unreachable

76:                                               ; preds = %67
  call void @llvm.lifetime.end.p0(i64 4, ptr %10) #6
  br label %77

77:                                               ; preds = %76
  br label %78

78:                                               ; preds = %77
  %79 = load i32, ptr %5, align 4
  call void @llvm.lifetime.end.p0(i64 8, ptr %6) #6
  call void @llvm.lifetime.end.p0(i64 4, ptr %5) #6
  ret i32 %79
}