; Function Attrs: nounwind uwtable
define dso_local i32 @list_append_list(ptr noundef %0, ptr noundef %1) #0 {
  %3 = getelementptr inbounds nuw i8, ptr %0, i64 40
  %4 = tail call i32 @pthread_rwlock_wrlock(ptr noundef nonnull %3) #9
  %.not = icmp eq i32 %4, 0
  br i1 %.not, label %7, label %5

5:                                                ; preds = %2
  %6 = tail call ptr @__errno_location() #10
  store i32 %4, ptr %6, align 4
  tail call void (ptr, ...) @fatal_abort(ptr noundef nonnull @.str.2, ptr noundef nonnull @__func__.list_append_list) #11
  unreachable

7:                                                ; preds = %2
  %8 = getelementptr inbounds nuw i8, ptr %1, i64 40
  %9 = tail call i32 @pthread_rwlock_wrlock(ptr noundef nonnull %8) #9
  %.not24 = icmp eq i32 %9, 0
  br i1 %.not24, label %.preheader, label %15

.preheader:                                       ; preds = %7
  %.019.in28 = getelementptr inbounds nuw i8, ptr %1, i64 8
  %.01929 = load ptr, ptr %.019.in28, align 8
  %.not2530 = icmp eq ptr %.01929, null
  br i1 %.not2530, label %._crit_edge, label %.lr.ph

.lr.ph:                                           ; preds = %.preheader
  %10 = getelementptr inbounds nuw i8, ptr %0, i64 16
  %11 = getelementptr inbounds nuw i8, ptr %0, i64 96
  %12 = getelementptr inbounds nuw i8, ptr %0, i64 104
  %13 = getelementptr inbounds nuw i8, ptr %0, i64 4
  %14 = getelementptr inbounds nuw i8, ptr %0, i64 24
  br label %17

15:                                               ; preds = %7
  %16 = tail call ptr @__errno_location() #10
  store i32 %9, ptr %16, align 4
  tail call void (ptr, ...) @fatal_abort(ptr noundef nonnull @.str.2, ptr noundef nonnull @__func__.list_append_list) #11
  unreachable

17:                                               ; preds = %.lr.ph, %_list_node_create.exit
  %.01932 = phi ptr [ %.01929, %.lr.ph ], [ %.019, %_list_node_create.exit ]
  %.031 = phi i32 [ 0, %.lr.ph ], [ %49, %_list_node_create.exit ]
  %18 = load ptr, ptr %10, align 8
  %19 = load ptr, ptr %.01932, align 8
  %20 = load ptr, ptr %11, align 8
  %.not.i = icmp eq ptr %20, null
  br i1 %.not.i, label %21, label %.loopexit.i

21:                                               ; preds = %17
  %22 = tail call ptr @slurm_xcalloc(i64 noundef 247, i64 noundef 16, i1 noundef zeroext true, i1 noundef zeroext false, ptr noundef nonnull @.str, i32 noundef 972, ptr noundef nonnull @__func__._list_node_create) #9
  %23 = load ptr, ptr %12, align 8
  %24 = getelementptr inbounds nuw i8, ptr %22, i64 8
  store ptr %23, ptr %24, align 8
  store ptr %22, ptr %12, align 8
  %25 = getelementptr inbounds nuw i8, ptr %22, i64 16
  store ptr %25, ptr %11, align 8
  br label %26

26:                                               ; preds = %26, %21
  %indvars.iv.i = phi i64 [ 1, %21 ], [ %indvars.iv.next.i, %26 ]
  %indvars.iv.next.i = add nuw nsw i64 %indvars.iv.i, 1
  %27 = getelementptr inbounds nuw %struct.listNode, ptr %22, i64 %indvars.iv.next.i
  %28 = getelementptr inbounds nuw %struct.listNode, ptr %22, i64 %indvars.iv.i, i32 1
  store ptr %27, ptr %28, align 8
  %exitcond.not.i = icmp eq i64 %indvars.iv.next.i, 246
  br i1 %exitcond.not.i, label %.loopexit.loopexit.i, label %26, !llvm.loop !14

.loopexit.loopexit.i:                             ; preds = %26
  %.pre.i = load ptr, ptr %11, align 8
  br label %.loopexit.i

.loopexit.i:                                      ; preds = %.loopexit.loopexit.i, %17
  %29 = phi ptr [ %.pre.i, %.loopexit.loopexit.i ], [ %20, %17 ]
  %30 = getelementptr inbounds nuw i8, ptr %29, i64 8
  %31 = load ptr, ptr %30, align 8
  store ptr %31, ptr %11, align 8
  store ptr %19, ptr %29, align 8
  %32 = load ptr, ptr %18, align 8
  store ptr %32, ptr %30, align 8
  %.not36.i = icmp eq ptr %32, null
  br i1 %.not36.i, label %33, label %34

33:                                               ; preds = %.loopexit.i
  store ptr %30, ptr %10, align 8
  br label %34

34:                                               ; preds = %33, %.loopexit.i
  store ptr %29, ptr %18, align 8
  %35 = load i32, ptr %13, align 4
  %36 = add nsw i32 %35, 1
  store i32 %36, ptr %13, align 4
  %.03539.i = load ptr, ptr %14, align 8
  %.not3740.i = icmp eq ptr %.03539.i, null
  br i1 %.not3740.i, label %_list_node_create.exit, label %.lr.ph.i

.lr.ph.i:                                         ; preds = %34, %47
  %.03541.i = phi ptr [ %.035.i, %47 ], [ %.03539.i, %34 ]
  %37 = getelementptr inbounds nuw i8, ptr %.03541.i, i64 24
  %38 = load ptr, ptr %37, align 8
  %39 = icmp eq ptr %38, %18
  br i1 %39, label %40, label %41

40:                                               ; preds = %.lr.ph.i
  store ptr %30, ptr %37, align 8
  br label %47

41:                                               ; preds = %.lr.ph.i
  %42 = getelementptr inbounds nuw i8, ptr %.03541.i, i64 16
  %43 = load ptr, ptr %42, align 8
  %44 = load ptr, ptr %30, align 8
  %45 = icmp eq ptr %43, %44
  br i1 %45, label %46, label %47

46:                                               ; preds = %41
  store ptr %29, ptr %42, align 8
  br label %47

47:                                               ; preds = %46, %41, %40
  %48 = getelementptr inbounds nuw i8, ptr %.03541.i, i64 32
  %.035.i = load ptr, ptr %48, align 8
  %.not37.i = icmp eq ptr %.035.i, null
  br i1 %.not37.i, label %_list_node_create.exit, label %.lr.ph.i, !llvm.loop !15

_list_node_create.exit:                           ; preds = %47, %34
  %49 = add nuw nsw i32 %.031, 1
  %.019.in = getelementptr inbounds nuw i8, ptr %.01932, i64 8
  %.019 = load ptr, ptr %.019.in, align 8
  %.not25 = icmp eq ptr %.019, null
  br i1 %.not25, label %._crit_edge, label %17, !llvm.loop !16

._crit_edge:                                      ; preds = %_list_node_create.exit, %.preheader
  %.0.lcssa = phi i32 [ 0, %.preheader ], [ %49, %_list_node_create.exit ]
  %50 = tail call i32 @pthread_rwlock_unlock(ptr noundef nonnull %8) #9
  %.not26 = icmp eq i32 %50, 0
  br i1 %.not26, label %53, label %51

51:                                               ; preds = %._crit_edge
  %52 = tail call ptr @__errno_location() #10
  store i32 %50, ptr %52, align 4
  tail call void (ptr, ...) @fatal_abort(ptr noundef nonnull @.str.3, ptr noundef nonnull @__func__.list_append_list) #11
  unreachable

53:                                               ; preds = %._crit_edge
  %54 = tail call i32 @pthread_rwlock_unlock(ptr noundef nonnull %3) #9
  %.not27 = icmp eq i32 %54, 0
  br i1 %.not27, label %57, label %55

55:                                               ; preds = %53
  %56 = tail call ptr @__errno_location() #10
  store i32 %54, ptr %56, align 4
  tail call void (ptr, ...) @fatal_abort(ptr noundef nonnull @.str.3, ptr noundef nonnull @__func__.list_append_list) #11
  unreachable

57:                                               ; preds = %53
  ret i32 %.0.lcssa
}